target datalayout = "e-m:e-p270:32:32-p271:32:32-p272:64:64-i64:64-i128:128-f80:128-n8:16:32:64-S128"
target triple = "x86_64-pc-linux-gnu"

%class.OopHandle = type { ptr }
%class.ThreadSnapshot = type { ptr, %class.OopHandle, i32, i8, i8, i64, i64, i64, i64, i64, i64, %class.OopHandle, %class.OopHandle, ptr, ptr, ptr }

@_ZN16ThreadStackTraceC1EP10JavaThreadb = hidden unnamed_addr alias void (ptr, ptr, i1), ptr @_ZN16ThreadStackTraceC2EP10JavaThreadb

; Function Attrs: mustprogress nounwind uwtable
define hidden void @_ZN14ThreadSnapshot23dump_stack_at_safepointEibP18ObjectMonitorsViewb(ptr noundef nonnull align 8 dereferenceable(112) %0, i32 noundef %1, i1 noundef zeroext %2, ptr noundef %3, i1 noundef zeroext %4) #1 align 2 {
  %6 = alloca i64, align 8
  %7 = alloca i8, align 1
  %8 = alloca i64, align 8
  %9 = alloca ptr, align 8
  %10 = alloca i32, align 4
  %11 = alloca i8, align 1
  %12 = alloca ptr, align 8
  %13 = alloca i8, align 1
  store ptr %0, ptr %9, align 8
  store i32 %1, ptr %10, align 4
  %14 = zext i1 %2 to i8
  store i8 %14, ptr %11, align 1
  store ptr %3, ptr %12, align 8
  %15 = zext i1 %4 to i8
  store i8 %15, ptr %13, align 1
  %16 = load ptr, ptr %9, align 8
  store i64 32, ptr %8, align 8
  %17 = load i64, ptr %8, align 8
  store i64 %17, ptr %6, align 8
  store i8 9, ptr %7, align 1
  %18 = load i64, ptr %6, align 8
  %19 = load i8, ptr %7, align 1
  %20 = call noundef ptr @_Z12AllocateHeapm8MEMFLAGSN17AllocFailStrategy13AllocFailEnumE(i64 noundef %18, i8 noundef zeroext %19, i32 noundef 0) #8
  %21 = getelementptr inbounds %class.ThreadSnapshot, ptr %16, i32 0, i32 0
  %22 = load ptr, ptr %21, align 8
  %23 = load i8, ptr %11, align 1
  %24 = trunc i8 %23 to i1
  call void @_ZN16ThreadStackTraceC1EP10JavaThreadb(ptr noundef nonnull align 8 dereferenceable(32) %20, ptr noundef %22, i1 noundef zeroext %24)
  %25 = getelementptr inbounds %class.ThreadSnapshot, ptr %16, i32 0, i32 13
  store ptr %20, ptr %25, align 8
  %26 = getelementptr inbounds %class.ThreadSnapshot, ptr %16, i32 0, i32 13
  %27 = load ptr, ptr %26, align 8
  %28 = load i32, ptr %10, align 4
  %29 = load ptr, ptr %12, align 8
  %30 = load i8, ptr %13, align 1
  %31 = trunc i8 %30 to i1
  call void @_ZN16ThreadStackTrace23dump_stack_at_safepointEiP18ObjectMonitorsViewb(ptr noundef nonnull align 8 dereferenceable(32) %27, i32 noundef %28, ptr noundef %29, i1 noundef zeroext %31)
  ret void
}