; Function Attrs: mustprogress nounwind uwtable
define hidden void @_ZN14ThreadSnapshot23dump_stack_at_safepointEibP18ObjectMonitorsViewb(ptr nocapture noundef nonnull align 8 dereferenceable(112) %0, i32 noundef %1, i1 noundef zeroext %2, ptr noundef %3, i1 noundef zeroext %4) local_unnamed_addr #0 align 2 {
  %6 = tail call noundef ptr @_Z12AllocateHeapm8MEMFLAGSN17AllocFailStrategy13AllocFailEnumE(i64 noundef 32, i8 noundef zeroext 9, i32 noundef 0) #12
  %7 = load ptr, ptr %0, align 8
  %8 = zext i1 %2 to i8
  store ptr %7, ptr %6, align 8
  %9 = tail call noundef ptr @_ZN6AnyObjnwEm8MEMFLAGS(i64 noundef 24, i8 noundef zeroext 23) #12
  %10 = icmp eq ptr %9, null
  br i1 %10, label %16, label %11

11:                                               ; preds = %5
  %12 = tail call noundef ptr @_ZN27GrowableArrayCHeapAllocator8allocateEii8MEMFLAGS(i32 noundef 10, i32 noundef 8, i8 noundef zeroext 23) #12
  store i32 0, ptr %9, align 4
  %13 = getelementptr inbounds i8, ptr %9, i64 4
  store i32 10, ptr %13, align 4
  %14 = getelementptr inbounds i8, ptr %9, i64 8
  store ptr %12, ptr %14, align 8
  tail call void @llvm.memset.p0.i64(ptr noundef nonnull align 8 dereferenceable(80) %12, i8 0, i64 80, i1 false)
  %15 = getelementptr inbounds i8, ptr %9, i64 16
  store i64 47, ptr %15, align 8
  br label %16

16:                                               ; preds = %11, %5
  %17 = getelementptr inbounds i8, ptr %6, i64 16
  store ptr %9, ptr %17, align 8
  %18 = getelementptr inbounds i8, ptr %6, i64 8
  store i32 0, ptr %18, align 8
  %19 = getelementptr inbounds i8, ptr %6, i64 12
  store i8 %8, ptr %19, align 4
  br i1 %2, label %20, label %_ZN16ThreadStackTraceC2EP10JavaThreadb.exit

20:                                               ; preds = %16
  %21 = tail call noundef ptr @_ZN6AnyObjnwEm8MEMFLAGS(i64 noundef 24, i8 noundef zeroext 23) #12
  %22 = icmp eq ptr %21, null
  br i1 %22, label %_ZN16ThreadStackTraceC2EP10JavaThreadb.exit, label %23

23:                                               ; preds = %20
  %24 = tail call noundef ptr @_ZN27GrowableArrayCHeapAllocator8allocateEii8MEMFLAGS(i32 noundef 10, i32 noundef 8, i8 noundef zeroext 23) #12
  store i32 0, ptr %21, align 4
  %25 = getelementptr inbounds i8, ptr %21, i64 4
  store i32 10, ptr %25, align 4
  %26 = getelementptr inbounds i8, ptr %21, i64 8
  store ptr %24, ptr %26, align 8
  tail call void @llvm.memset.p0.i64(ptr noundef nonnull align 8 dereferenceable(80) %24, i8 0, i64 80, i1 false)
  %27 = getelementptr inbounds i8, ptr %21, i64 16
  store i64 47, ptr %27, align 8
  br label %_ZN16ThreadStackTraceC2EP10JavaThreadb.exit

_ZN16ThreadStackTraceC2EP10JavaThreadb.exit:      ; preds = %16, %20, %23
  %.sink.i = phi ptr [ %21, %23 ], [ null, %20 ], [ null, %16 ]
  %28 = getelementptr inbounds i8, ptr %6, i64 24
  store ptr %.sink.i, ptr %28, align 8
  %29 = getelementptr inbounds i8, ptr %0, i64 88
  store ptr %6, ptr %29, align 8
  tail call void @_ZN16ThreadStackTrace23dump_stack_at_safepointEiP18ObjectMonitorsViewb(ptr noundef nonnull align 8 dereferenceable(32) %6, i32 noundef %1, ptr noundef %3, i1 noundef zeroext %4)
  ret void
}